#include <math.h>
#include <stdio.h>
#include <stdlib.h>
#include <string.h>

void main()
{
	char a[1000];
	int n,b[300]={0},s=0,c[300]={0},t=0,i;
	gets(a);
	n=strlen(a);
	a[n]=32;
	for(i=0;i<n;i++)
	{
		if((a[i]!=32)&&(a[i+1]==32)){b[s]=i;s++;}
		if((a[i]==32)&&(a[i+1]!=32)){c[t]=i;t++;}
	}
	for(i=0;i<s;i++)
	{
		if(i==0)printf("%d",b[i]+1);
		else
			printf(",%d",b[i]-c[i-1]);
	}
	
}