; ModuleID = 'source-C-CXX/27/45.c'
source_filename = "source-C-CXX/27/45.c"
target datalayout = "e-m:e-p270:32:32-p271:32:32-p272:64:64-i64:64-f80:128-n8:16:32:64-S128"
target triple = "x86_64-pc-linux-gnu"

@.str = private unnamed_addr constant [3 x i8] c"%d\00", align 1
@.str.1 = private unnamed_addr constant [4 x i8] c",%d\00", align 1

; Function Attrs: nounwind sspstrong uwtable
define dso_local void @main() local_unnamed_addr #0 {
  %1 = alloca [1000 x i8], align 16
  %2 = alloca [300 x i32], align 16
  %3 = alloca [300 x i32], align 16
  %4 = getelementptr inbounds [1000 x i8], [1000 x i8]* %1, i64 0, i64 0
  call void @llvm.lifetime.start.p0i8(i64 1000, i8* nonnull %4) #6
  %5 = bitcast [300 x i32]* %2 to i8*
  call void @llvm.lifetime.start.p0i8(i64 1200, i8* nonnull %5) #6
  call void @llvm.memset.p0i8.i64(i8* noundef nonnull align 16 dereferenceable(1200) %5, i8 0, i64 1200, i1 false)
  %6 = bitcast [300 x i32]* %3 to i8*
  call void @llvm.lifetime.start.p0i8(i64 1200, i8* nonnull %6) #6
  call void @llvm.memset.p0i8.i64(i8* noundef nonnull align 16 dereferenceable(1200) %6, i8 0, i64 1200, i1 false)
  %7 = call i32 (i8*, ...) bitcast (i32 (...)* @gets to i32 (i8*, ...)*)(i8* nonnull %4) #6
  %8 = call i64 @strlen(i8* noundef nonnull %4) #7
  %9 = trunc i64 %8 to i32
  %10 = shl i64 %8, 32
  %11 = ashr exact i64 %10, 32
  %12 = getelementptr inbounds [1000 x i8], [1000 x i8]* %1, i64 0, i64 %11
  store i8 32, i8* %12, align 1, !tbaa !5
  %13 = icmp sgt i32 %9, 0
  br i1 %13, label %14, label %63

14:                                               ; preds = %0
  %15 = and i64 %8, 4294967295
  br label %25

16:                                               ; preds = %48
  %17 = icmp sgt i32 %49, 0
  br i1 %17, label %18, label %63

18:                                               ; preds = %16
  %19 = getelementptr inbounds [300 x i32], [300 x i32]* %2, i64 0, i64 0
  %20 = load i32, i32* %19, align 16
  %21 = add i32 %20, 1
  %22 = zext i32 %49 to i64
  %23 = call i32 (i8*, ...) @printf(i8* nonnull dereferenceable(1) getelementptr inbounds ([3 x i8], [3 x i8]* @.str, i64 0, i64 0), i32 %21)
  %24 = icmp eq i32 %49, 1
  br i1 %24, label %63, label %52

25:                                               ; preds = %14, %48
  %26 = phi i64 [ 0, %14 ], [ %32, %48 ]
  %27 = phi i32 [ 0, %14 ], [ %50, %48 ]
  %28 = phi i32 [ 0, %14 ], [ %49, %48 ]
  %29 = getelementptr inbounds [1000 x i8], [1000 x i8]* %1, i64 0, i64 %26
  %30 = load i8, i8* %29, align 1, !tbaa !5
  %31 = icmp eq i8 %30, 32
  %32 = add nuw nsw i64 %26, 1
  %33 = getelementptr inbounds [1000 x i8], [1000 x i8]* %1, i64 0, i64 %32
  %34 = load i8, i8* %33, align 1, !tbaa !5
  %35 = icmp eq i8 %34, 32
  br i1 %31, label %42, label %36

36:                                               ; preds = %25
  br i1 %35, label %37, label %48

37:                                               ; preds = %36
  %38 = sext i32 %28 to i64
  %39 = getelementptr inbounds [300 x i32], [300 x i32]* %2, i64 0, i64 %38
  %40 = trunc i64 %26 to i32
  store i32 %40, i32* %39, align 4, !tbaa !8
  %41 = add nsw i32 %28, 1
  br label %48

42:                                               ; preds = %25
  br i1 %35, label %48, label %43

43:                                               ; preds = %42
  %44 = sext i32 %27 to i64
  %45 = getelementptr inbounds [300 x i32], [300 x i32]* %3, i64 0, i64 %44
  %46 = trunc i64 %26 to i32
  store i32 %46, i32* %45, align 4, !tbaa !8
  %47 = add nsw i32 %27, 1
  br label %48

48:                                               ; preds = %36, %37, %42, %43
  %49 = phi i32 [ %28, %36 ], [ %41, %37 ], [ %28, %42 ], [ %28, %43 ]
  %50 = phi i32 [ %27, %36 ], [ %27, %37 ], [ %27, %42 ], [ %47, %43 ]
  %51 = icmp eq i64 %32, %15
  br i1 %51, label %16, label %25, !llvm.loop !10

52:                                               ; preds = %18, %52
  %53 = phi i64 [ %61, %52 ], [ 1, %18 ]
  %54 = getelementptr inbounds [300 x i32], [300 x i32]* %2, i64 0, i64 %53
  %55 = load i32, i32* %54, align 4, !tbaa !8
  %56 = add nsw i64 %53, -1
  %57 = getelementptr inbounds [300 x i32], [300 x i32]* %3, i64 0, i64 %56
  %58 = load i32, i32* %57, align 4, !tbaa !8
  %59 = sub nsw i32 %55, %58
  %60 = call i32 (i8*, ...) @printf(i8* nonnull dereferenceable(1) getelementptr inbounds ([4 x i8], [4 x i8]* @.str.1, i64 0, i64 0), i32 %59)
  %61 = add nuw nsw i64 %53, 1
  %62 = icmp eq i64 %61, %22
  br i1 %62, label %63, label %52, !llvm.loop !12

63:                                               ; preds = %52, %0, %18, %16
  call void @llvm.lifetime.end.p0i8(i64 1200, i8* nonnull %6) #6
  call void @llvm.lifetime.end.p0i8(i64 1200, i8* nonnull %5) #6
  call void @llvm.lifetime.end.p0i8(i64 1000, i8* nonnull %4) #6
  ret void
}

; Function Attrs: argmemonly mustprogress nofree nosync nounwind willreturn
declare void @llvm.lifetime.start.p0i8(i64 immarg, i8* nocapture) #1

; Function Attrs: argmemonly mustprogress nofree nounwind willreturn writeonly
declare void @llvm.memset.p0i8.i64(i8* nocapture writeonly, i8, i64, i1 immarg) #2

declare i32 @gets(...) local_unnamed_addr #3

; Function Attrs: argmemonly mustprogress nofree nounwind readonly willreturn
declare i64 @strlen(i8* nocapture) local_unnamed_addr #4

; Function Attrs: nofree nounwind
declare noundef i32 @printf(i8* nocapture noundef readonly, ...) local_unnamed_addr #5

; Function Attrs: argmemonly mustprogress nofree nosync nounwind willreturn
declare void @llvm.lifetime.end.p0i8(i64 immarg, i8* nocapture) #1


!llvm.module.flags = !{!0, !1, !2, !3}
!llvm.ident = !{!4}

!0 = !{i32 1, !"wchar_size", i32 4}
!1 = !{i32 7, !"PIC Level", i32 2}
!2 = !{i32 7, !"PIE Level", i32 2}
!3 = !{i32 7, !"uwtable", i32 1}
!4 = !{!"clang version 13.0.0"}
!5 = !{!6, !6, i64 0}
!6 = !{!"omnipotent char", !7, i64 0}
!7 = !{!"Simple C/C++ TBAA"}
!8 = !{!9, !9, i64 0}
!9 = !{!"int", !6, i64 0}
!10 = distinct !{!10, !11}
!11 = !{!"llvm.loop.mustprogress"}
!12 = distinct !{!12, !11, !13}
!13 = !{!"llvm.loop.peeled.count", i32 1}
